; ModuleID = '7/533.c'
source_filename = "7/533.c"
target datalayout = "e-m:e-p270:32:32-p271:32:32-p272:64:64-i64:64-f80:128-n8:16:32:64-S128"
target triple = "x86_64-pc-linux-gnu"

@.str = private unnamed_addr constant [4 x i8] c"%s\0A\00", align 1

; Function Attrs: noinline nounwind uwtable
define dso_local i32 @main() #0 {
  %1 = alloca i32, align 4
  %2 = alloca [100 x i8], align 16
  %3 = alloca [100 x i8], align 16
  %4 = alloca [100 x i8], align 16
  %5 = alloca i32, align 4
  %6 = alloca i32, align 4
  %7 = alloca i32, align 4
  %8 = alloca i32, align 4
  %9 = alloca i32, align 4
  store i32 0, i32* %1, align 4
  %10 = getelementptr inbounds [100 x i8], [100 x i8]* %2, i64 0, i64 0
  %11 = call i32 (i8*, ...) bitcast (i32 (...)* @gets to i32 (i8*, ...)*)(i8* %10)
  %12 = getelementptr inbounds [100 x i8], [100 x i8]* %3, i64 0, i64 0
  %13 = call i32 (i8*, ...) bitcast (i32 (...)* @gets to i32 (i8*, ...)*)(i8* %12)
  %14 = getelementptr inbounds [100 x i8], [100 x i8]* %4, i64 0, i64 0
  %15 = call i32 (i8*, ...) bitcast (i32 (...)* @gets to i32 (i8*, ...)*)(i8* %14)
  store i32 0, i32* %5, align 4
  br label %16

16:                                               ; preds = %85, %0
  %17 = load i32, i32* %5, align 4
  %18 = sext i32 %17 to i64
  %19 = getelementptr inbounds [100 x i8], [100 x i8]* %2, i64 0, i64 0
  %20 = call i64 @strlen(i8* %19) #3
  %21 = icmp ult i64 %18, %20
  br i1 %21, label %22, label %88

22:                                               ; preds = %16
  %23 = load i32, i32* %5, align 4
  store i32 %23, i32* %8, align 4
  store i32 0, i32* %6, align 4
  br label %24

24:                                               ; preds = %44, %22
  %25 = load i32, i32* %8, align 4
  %26 = sext i32 %25 to i64
  %27 = getelementptr inbounds [100 x i8], [100 x i8]* %2, i64 0, i64 %26
  %28 = load i8, i8* %27, align 1
  %29 = sext i8 %28 to i32
  %30 = load i32, i32* %6, align 4
  %31 = sext i32 %30 to i64
  %32 = getelementptr inbounds [100 x i8], [100 x i8]* %3, i64 0, i64 %31
  %33 = load i8, i8* %32, align 1
  %34 = sext i8 %33 to i32
  %35 = icmp eq i32 %29, %34
  br i1 %35, label %36, label %42

36:                                               ; preds = %24
  %37 = load i32, i32* %6, align 4
  %38 = sext i32 %37 to i64
  %39 = getelementptr inbounds [100 x i8], [100 x i8]* %3, i64 0, i64 0
  %40 = call i64 @strlen(i8* %39) #3
  %41 = icmp ult i64 %38, %40
  br label %42

42:                                               ; preds = %36, %24
  %43 = phi i1 [ false, %24 ], [ %41, %36 ]
  br i1 %43, label %44, label %49

44:                                               ; preds = %42
  %45 = load i32, i32* %8, align 4
  %46 = add nsw i32 %45, 1
  store i32 %46, i32* %8, align 4
  %47 = load i32, i32* %6, align 4
  %48 = add nsw i32 %47, 1
  store i32 %48, i32* %6, align 4
  br label %24

49:                                               ; preds = %42
  %50 = load i32, i32* %6, align 4
  %51 = sext i32 %50 to i64
  %52 = getelementptr inbounds [100 x i8], [100 x i8]* %3, i64 0, i64 0
  %53 = call i64 @strlen(i8* %52) #3
  %54 = icmp eq i64 %51, %53
  br i1 %54, label %55, label %80

55:                                               ; preds = %49
  store i32 0, i32* %9, align 4
  %56 = load i32, i32* %5, align 4
  store i32 %56, i32* %7, align 4
  br label %57

57:                                               ; preds = %76, %55
  %58 = load i32, i32* %7, align 4
  %59 = sext i32 %58 to i64
  %60 = load i32, i32* %5, align 4
  %61 = sext i32 %60 to i64
  %62 = getelementptr inbounds [100 x i8], [100 x i8]* %3, i64 0, i64 0
  %63 = call i64 @strlen(i8* %62) #3
  %64 = add i64 %61, %63
  %65 = icmp ult i64 %59, %64
  br i1 %65, label %66, label %79

66:                                               ; preds = %57
  %67 = load i32, i32* %7, align 4
  %68 = load i32, i32* %5, align 4
  %69 = sub nsw i32 %67, %68
  %70 = sext i32 %69 to i64
  %71 = getelementptr inbounds [100 x i8], [100 x i8]* %4, i64 0, i64 %70
  %72 = load i8, i8* %71, align 1
  %73 = load i32, i32* %7, align 4
  %74 = sext i32 %73 to i64
  %75 = getelementptr inbounds [100 x i8], [100 x i8]* %2, i64 0, i64 %74
  store i8 %72, i8* %75, align 1
  br label %76

76:                                               ; preds = %66
  %77 = load i32, i32* %7, align 4
  %78 = add nsw i32 %77, 1
  store i32 %78, i32* %7, align 4
  br label %57

79:                                               ; preds = %57
  store i32 1, i32* %9, align 4
  br label %80

80:                                               ; preds = %79, %49
  %81 = load i32, i32* %9, align 4
  %82 = icmp eq i32 %81, 1
  br i1 %82, label %83, label %84

83:                                               ; preds = %80
  br label %88

84:                                               ; preds = %80
  br label %85

85:                                               ; preds = %84
  %86 = load i32, i32* %5, align 4
  %87 = add nsw i32 %86, 1
  store i32 %87, i32* %5, align 4
  br label %16

88:                                               ; preds = %83, %16
  %89 = getelementptr inbounds [100 x i8], [100 x i8]* %2, i64 0, i64 0
  %90 = call i32 (i8*, ...) @printf(i8* getelementptr inbounds ([4 x i8], [4 x i8]* @.str, i64 0, i64 0), i8* %89)
  ret i32 0
}

declare dso_local i32 @gets(...) #1

; Function Attrs: nounwind readonly
declare dso_local i64 @strlen(i8*) #2

declare dso_local i32 @printf(i8*, ...) #1


!llvm.module.flags = !{!0}
!llvm.ident = !{!1}

!0 = !{i32 1, !"wchar_size", i32 4}
!1 = !{!"clang version 10.0.0-4ubuntu1 "}
