; ModuleID = 'source-C-CXX/6/533.c'
source_filename = "source-C-CXX/6/533.c"
target datalayout = "e-m:e-p270:32:32-p271:32:32-p272:64:64-i64:64-f80:128-n8:16:32:64-S128"
target triple = "x86_64-pc-linux-gnu"

; Function Attrs: nounwind sspstrong uwtable
define dso_local i32 @main() local_unnamed_addr #0 {
  %1 = alloca [100 x i8], align 16
  %2 = getelementptr inbounds [100 x i8], [100 x i8]* %1, i64 0, i64 0
  %3 = alloca [100 x i8], align 16
  %4 = alloca [100 x i8], align 16
  %5 = getelementptr inbounds [100 x i8], [100 x i8]* %4, i64 0, i64 0
  %6 = getelementptr inbounds [100 x i8], [100 x i8]* %1, i64 0, i64 0
  call void @llvm.lifetime.start.p0i8(i64 100, i8* nonnull %6) #6
  %7 = getelementptr inbounds [100 x i8], [100 x i8]* %3, i64 0, i64 0
  call void @llvm.lifetime.start.p0i8(i64 100, i8* nonnull %7) #6
  %8 = getelementptr inbounds [100 x i8], [100 x i8]* %4, i64 0, i64 0
  call void @llvm.lifetime.start.p0i8(i64 100, i8* nonnull %8) #6
  %9 = call i32 (i8*, ...) bitcast (i32 (...)* @gets to i32 (i8*, ...)*)(i8* nonnull %6) #6
  %10 = call i32 (i8*, ...) bitcast (i32 (...)* @gets to i32 (i8*, ...)*)(i8* nonnull %7) #6
  %11 = call i32 (i8*, ...) bitcast (i32 (...)* @gets to i32 (i8*, ...)*)(i8* nonnull %8) #6
  %12 = load i8, i8* %6, align 16
  %13 = icmp eq i8 %12, 0
  br i1 %13, label %39, label %14

14:                                               ; preds = %0
  %15 = load i8, i8* %7, align 16
  %16 = call i64 @strlen(i8* noundef nonnull %7) #7
  %17 = icmp eq i8 %12, %15
  br i1 %17, label %18, label %32

18:                                               ; preds = %14
  %19 = trunc i64 %16 to i32
  br label %20

20:                                               ; preds = %18, %24
  %21 = phi i64 [ 0, %18 ], [ %25, %24 ]
  %22 = phi i32 [ 0, %18 ], [ %26, %24 ]
  %23 = icmp eq i64 %21, %16
  br i1 %23, label %32, label %24

24:                                               ; preds = %20
  %25 = add nuw i64 %21, 1
  %26 = add nuw nsw i32 %22, 1
  %27 = getelementptr inbounds [100 x i8], [100 x i8]* %1, i64 0, i64 %25
  %28 = load i8, i8* %27, align 1, !tbaa !5
  %29 = getelementptr inbounds [100 x i8], [100 x i8]* %3, i64 0, i64 %25
  %30 = load i8, i8* %29, align 1, !tbaa !5
  %31 = icmp eq i8 %28, %30
  br i1 %31, label %20, label %32, !llvm.loop !8

32:                                               ; preds = %20, %24, %14
  %33 = phi i32 [ 0, %14 ], [ %26, %24 ], [ %19, %20 ]
  %34 = zext i32 %33 to i64
  %35 = icmp ne i64 %16, %34
  %36 = icmp eq i64 %16, 0
  %37 = or i1 %35, %36
  br i1 %37, label %39, label %38

38:                                               ; preds = %32
  call void @llvm.memcpy.p0i8.p0i8.i64(i8* nonnull align 16 %2, i8* nonnull align 16 %5, i64 %16, i1 false)
  br label %39

39:                                               ; preds = %38, %0, %32
  %40 = call i32 @puts(i8* nonnull %6)
  call void @llvm.lifetime.end.p0i8(i64 100, i8* nonnull %8) #6
  call void @llvm.lifetime.end.p0i8(i64 100, i8* nonnull %7) #6
  call void @llvm.lifetime.end.p0i8(i64 100, i8* nonnull %6) #6
  ret i32 0
}

; Function Attrs: argmemonly mustprogress nofree nosync nounwind willreturn
declare void @llvm.lifetime.start.p0i8(i64 immarg, i8* nocapture) #1

declare i32 @gets(...) local_unnamed_addr #2

; Function Attrs: argmemonly mustprogress nofree nounwind readonly willreturn
declare i64 @strlen(i8* nocapture) local_unnamed_addr #3

; Function Attrs: argmemonly mustprogress nofree nosync nounwind willreturn
declare void @llvm.lifetime.end.p0i8(i64 immarg, i8* nocapture) #1

; Function Attrs: nofree nounwind
declare noundef i32 @puts(i8* nocapture noundef readonly) local_unnamed_addr #4

; Function Attrs: argmemonly nofree nounwind willreturn
declare void @llvm.memcpy.p0i8.p0i8.i64(i8* noalias nocapture writeonly, i8* noalias nocapture readonly, i64, i1 immarg) #5


!llvm.module.flags = !{!0, !1, !2, !3}
!llvm.ident = !{!4}

!0 = !{i32 1, !"wchar_size", i32 4}
!1 = !{i32 7, !"PIC Level", i32 2}
!2 = !{i32 7, !"PIE Level", i32 2}
!3 = !{i32 7, !"uwtable", i32 1}
!4 = !{!"clang version 13.0.0"}
!5 = !{!6, !6, i64 0}
!6 = !{!"omnipotent char", !7, i64 0}
!7 = !{!"Simple C/C++ TBAA"}
!8 = distinct !{!8, !9}
!9 = !{!"llvm.loop.mustprogress"}
